target datalayout = "e-m:e-p270:32:32-p271:32:32-p272:64:64-i64:64-i128:128-f80:128-n8:16:32:64-S128"
target triple = "x86_64-unknown-linux-gnu"

%"class.icu_75::UnicodeSet" = type <{ %"class.icu_75::UnicodeFilter", ptr, i32, i32, i8, [7 x i8], ptr, ptr, i32, [4 x i8], ptr, i32, [4 x i8], ptr, ptr, [25 x i32], [4 x i8] }>
%"class.icu_75::UnicodeFilter" = type { %"class.icu_75::UnicodeFunctor", %"class.icu_75::UnicodeMatcher" }
%"class.icu_75::UnicodeFunctor" = type { %"class.icu_75::UObject" }
%"class.icu_75::UObject" = type { ptr }
%"class.icu_75::UnicodeMatcher" = type { ptr }

; Function Attrs: mustprogress uwtable
define void @_ZN6icu_7510UnicodeSet14releasePatternEv(ptr noundef nonnull align 8 dereferenceable(200) %this) #1 align 2 {
entry:
  %this.addr = alloca ptr, align 8
  store ptr %this, ptr %this.addr, align 8
  %this1 = load ptr, ptr %this.addr, align 8
  %pat = getelementptr inbounds %"class.icu_75::UnicodeSet", ptr %this1, i32 0, i32 10
  %0 = load ptr, ptr %pat, align 8
  %tobool = icmp ne ptr %0, null
  br i1 %tobool, label %if.then, label %if.end

if.then:                                          ; preds = %entry
  %pat2 = getelementptr inbounds %"class.icu_75::UnicodeSet", ptr %this1, i32 0, i32 10
  %1 = load ptr, ptr %pat2, align 8
  call void @uprv_free_75(ptr noundef %1)
  %pat3 = getelementptr inbounds %"class.icu_75::UnicodeSet", ptr %this1, i32 0, i32 10
  store ptr null, ptr %pat3, align 8
  %patLen = getelementptr inbounds %"class.icu_75::UnicodeSet", ptr %this1, i32 0, i32 11
  store i32 0, ptr %patLen, align 8
  br label %if.end

if.end:                                           ; preds = %if.then, %entry
  ret void
}

; Function Attrs: mustprogress nounwind uwtable
define linkonce_odr noundef signext i8 @_ZNK6icu_7510UnicodeSet8isFrozenEv(ptr noundef nonnull align 8 dereferenceable(200) %this) #0 comdat align 2 {
entry:
  %this.addr = alloca ptr, align 8
  store ptr %this, ptr %this.addr, align 8
  %this1 = load ptr, ptr %this.addr, align 8
  %bmpSet = getelementptr inbounds %"class.icu_75::UnicodeSet", ptr %this1, i32 0, i32 6
  %0 = load ptr, ptr %bmpSet, align 8
  %cmp = icmp ne ptr %0, null
  br i1 %cmp, label %lor.end, label %lor.rhs

lor.rhs:                                          ; preds = %entry
  %stringSpan = getelementptr inbounds %"class.icu_75::UnicodeSet", ptr %this1, i32 0, i32 14
  %1 = load ptr, ptr %stringSpan, align 8
  %cmp2 = icmp ne ptr %1, null
  br label %lor.end

lor.end:                                          ; preds = %lor.rhs, %entry
  %2 = phi i1 [ true, %entry ], [ %cmp2, %lor.rhs ]
  %conv = zext i1 %2 to i8
  ret i8 %conv
}

; Function Attrs: mustprogress uwtable
define noundef nonnull align 8 dereferenceable(200) ptr @_ZN6icu_7510UnicodeSet5clearEv(ptr noundef nonnull align 8 dereferenceable(200) %this) unnamed_addr #1 align 2 {
entry:
  %retval = alloca ptr, align 8
  %this.addr = alloca ptr, align 8
  store ptr %this, ptr %this.addr, align 8
  %this1 = load ptr, ptr %this.addr, align 8
  %call = call noundef signext i8 @_ZNK6icu_7510UnicodeSet8isFrozenEv(ptr noundef nonnull align 8 dereferenceable(200) %this1)
  %tobool = icmp ne i8 %call, 0
  br i1 %tobool, label %if.then, label %if.end

if.then:                                          ; preds = %entry
  store ptr %this1, ptr %retval, align 8
  br label %return

if.end:                                           ; preds = %entry
  %list = getelementptr inbounds %"class.icu_75::UnicodeSet", ptr %this1, i32 0, i32 1
  %0 = load ptr, ptr %list, align 8
  %arrayidx = getelementptr inbounds i32, ptr %0, i64 0
  store i32 1114112, ptr %arrayidx, align 4
  %len = getelementptr inbounds %"class.icu_75::UnicodeSet", ptr %this1, i32 0, i32 3
  store i32 1, ptr %len, align 4
  call void @_ZN6icu_7510UnicodeSet14releasePatternEv(ptr noundef nonnull align 8 dereferenceable(200) %this1)
  %strings = getelementptr inbounds %"class.icu_75::UnicodeSet", ptr %this1, i32 0, i32 13
  %1 = load ptr, ptr %strings, align 8
  %cmp = icmp ne ptr %1, null
  br i1 %cmp, label %if.then2, label %if.end4

if.then2:                                         ; preds = %if.end
  %strings3 = getelementptr inbounds %"class.icu_75::UnicodeSet", ptr %this1, i32 0, i32 13
  %2 = load ptr, ptr %strings3, align 8
  call void @_ZN6icu_757UVector17removeAllElementsEv(ptr noundef nonnull align 8 dereferenceable(40) %2)
  br label %if.end4

if.end4:                                          ; preds = %if.then2, %if.end
  %fFlags = getelementptr inbounds %"class.icu_75::UnicodeSet", ptr %this1, i32 0, i32 4
  store i8 0, ptr %fFlags, align 8
  store ptr %this1, ptr %retval, align 8
  br label %return

return:                                           ; preds = %if.end4, %if.then
  %3 = load ptr, ptr %retval, align 8
  ret ptr %3
}

; Function Attrs: mustprogress uwtable
define void @_ZN6icu_7510UnicodeSet10setToBogusEv(ptr noundef nonnull align 8 dereferenceable(200) %this) #1 align 2 {
entry:
  %this.addr = alloca ptr, align 8
  store ptr %this, ptr %this.addr, align 8
  %this1 = load ptr, ptr %this.addr, align 8
  %call = call noundef nonnull align 8 dereferenceable(200) ptr @_ZN6icu_7510UnicodeSet5clearEv(ptr noundef nonnull align 8 dereferenceable(200) %this1)
  %fFlags = getelementptr inbounds %"class.icu_75::UnicodeSet", ptr %this1, i32 0, i32 4
  store i8 1, ptr %fFlags, align 8
  ret void
}

; Function Attrs: mustprogress nounwind uwtable
define noundef i32 @_ZN6icu_7510UnicodeSet12nextCapacityEi(i32 noundef %minCapacity) #0 align 2 {
entry:
  %retval = alloca i32, align 4
  %minCapacity.addr = alloca i32, align 4
  %newCapacity = alloca i32, align 4
  store i32 %minCapacity, ptr %minCapacity.addr, align 4
  %0 = load i32, ptr %minCapacity.addr, align 4
  %cmp = icmp slt i32 %0, 25
  br i1 %cmp, label %if.then, label %if.else

if.then:                                          ; preds = %entry
  %1 = load i32, ptr %minCapacity.addr, align 4
  %add = add nsw i32 %1, 25
  store i32 %add, ptr %retval, align 4
  br label %return

if.else:                                          ; preds = %entry
  %2 = load i32, ptr %minCapacity.addr, align 4
  %cmp1 = icmp sle i32 %2, 2500
  br i1 %cmp1, label %if.then2, label %if.else3

if.then2:                                         ; preds = %if.else
  %3 = load i32, ptr %minCapacity.addr, align 4
  %mul = mul nsw i32 5, %3
  store i32 %mul, ptr %retval, align 4
  br label %return

if.else3:                                         ; preds = %if.else
  %4 = load i32, ptr %minCapacity.addr, align 4
  %mul4 = mul nsw i32 2, %4
  store i32 %mul4, ptr %newCapacity, align 4
  %5 = load i32, ptr %newCapacity, align 4
  %cmp5 = icmp sgt i32 %5, 1114113
  br i1 %cmp5, label %if.then6, label %if.end

if.then6:                                         ; preds = %if.else3
  store i32 1114113, ptr %newCapacity, align 4
  br label %if.end

if.end:                                           ; preds = %if.then6, %if.else3
  %6 = load i32, ptr %newCapacity, align 4
  store i32 %6, ptr %retval, align 4
  br label %return

return:                                           ; preds = %if.end, %if.then2, %if.then
  %7 = load i32, ptr %retval, align 4
  ret i32 %7
}

; Function Attrs: mustprogress uwtable
define noundef zeroext i1 @_ZN6icu_7510UnicodeSet14ensureCapacityEi(ptr noundef nonnull align 8 dereferenceable(200) %this, i32 noundef %newLen) #1 align 2 {
entry:
  %retval = alloca i1, align 1
  %this.addr = alloca ptr, align 8
  %newLen.addr = alloca i32, align 4
  %newCapacity = alloca i32, align 4
  %temp = alloca ptr, align 8
  store ptr %this, ptr %this.addr, align 8
  store i32 %newLen, ptr %newLen.addr, align 4
  %this1 = load ptr, ptr %this.addr, align 8
  %0 = load i32, ptr %newLen.addr, align 4
  %cmp = icmp sgt i32 %0, 1114113
  br i1 %cmp, label %if.then, label %if.end

if.then:                                          ; preds = %entry
  store i32 1114113, ptr %newLen.addr, align 4
  br label %if.end

if.end:                                           ; preds = %if.then, %entry
  %1 = load i32, ptr %newLen.addr, align 4
  %capacity = getelementptr inbounds %"class.icu_75::UnicodeSet", ptr %this1, i32 0, i32 2
  %2 = load i32, ptr %capacity, align 8
  %cmp2 = icmp sle i32 %1, %2
  br i1 %cmp2, label %if.then3, label %if.end4

if.then3:                                         ; preds = %if.end
  store i1 true, ptr %retval, align 1
  br label %return

if.end4:                                          ; preds = %if.end
  %3 = load i32, ptr %newLen.addr, align 4
  %call = call noundef i32 @_ZN6icu_7510UnicodeSet12nextCapacityEi(i32 noundef %3)
  store i32 %call, ptr %newCapacity, align 4
  %4 = load i32, ptr %newCapacity, align 4
  %conv = sext i32 %4 to i64
  %mul = mul i64 %conv, 4
  %call5 = call noalias ptr @uprv_malloc_75(i64 noundef %mul) #13
  store ptr %call5, ptr %temp, align 8
  %5 = load ptr, ptr %temp, align 8
  %cmp6 = icmp eq ptr %5, null
  br i1 %cmp6, label %if.then7, label %if.end8

if.then7:                                         ; preds = %if.end4
  call void @_ZN6icu_7510UnicodeSet10setToBogusEv(ptr noundef nonnull align 8 dereferenceable(200) %this1)
  store i1 false, ptr %retval, align 1
  br label %return

if.end8:                                          ; preds = %if.end4
  br label %do.body

do.body:                                          ; preds = %if.end8
  %6 = load ptr, ptr %temp, align 8
  %list = getelementptr inbounds %"class.icu_75::UnicodeSet", ptr %this1, i32 0, i32 1
  %7 = load ptr, ptr %list, align 8
  %len = getelementptr inbounds %"class.icu_75::UnicodeSet", ptr %this1, i32 0, i32 3
  %8 = load i32, ptr %len, align 4
  %conv9 = sext i32 %8 to i64
  %mul10 = mul i64 %conv9, 4
  call void @llvm.memcpy.p0.p0.i64(ptr align 4 %6, ptr align 4 %7, i64 %mul10, i1 false)
  br label %do.end

do.end:                                           ; preds = %do.body
  %list11 = getelementptr inbounds %"class.icu_75::UnicodeSet", ptr %this1, i32 0, i32 1
  %9 = load ptr, ptr %list11, align 8
  %stackList = getelementptr inbounds %"class.icu_75::UnicodeSet", ptr %this1, i32 0, i32 15
  %arraydecay = getelementptr inbounds [25 x i32], ptr %stackList, i64 0, i64 0
  %cmp12 = icmp ne ptr %9, %arraydecay
  br i1 %cmp12, label %if.then13, label %if.end15

if.then13:                                        ; preds = %do.end
  %list14 = getelementptr inbounds %"class.icu_75::UnicodeSet", ptr %this1, i32 0, i32 1
  %10 = load ptr, ptr %list14, align 8
  call void @uprv_free_75(ptr noundef %10)
  br label %if.end15

if.end15:                                         ; preds = %if.then13, %do.end
  %11 = load ptr, ptr %temp, align 8
  %list16 = getelementptr inbounds %"class.icu_75::UnicodeSet", ptr %this1, i32 0, i32 1
  store ptr %11, ptr %list16, align 8
  %12 = load i32, ptr %newCapacity, align 4
  %capacity17 = getelementptr inbounds %"class.icu_75::UnicodeSet", ptr %this1, i32 0, i32 2
  store i32 %12, ptr %capacity17, align 8
  store i1 true, ptr %retval, align 1
  br label %return

return:                                           ; preds = %if.end15, %if.then7, %if.then3
  %13 = load i1, ptr %retval, align 1
  ret i1 %13
}