; Function Attrs: mustprogress uwtable
define noundef zeroext i1 @_ZN6icu_7510UnicodeSet14ensureCapacityEi(ptr noundef nonnull align 8 dereferenceable(200) %this, i32 noundef %newLen) local_unnamed_addr #1 align 2 {
entry:
  %spec.store.select = tail call i32 @llvm.smin.i32(i32 %newLen, i32 1114113)
  %capacity = getelementptr inbounds i8, ptr %this, i64 24
  %0 = load i32, ptr %capacity, align 8
  %cmp2.not = icmp sgt i32 %spec.store.select, %0
  br i1 %cmp2.not, label %if.end4, label %return

if.end4:                                          ; preds = %entry
  %cmp.i = icmp slt i32 %newLen, 25
  br i1 %cmp.i, label %if.then.i, label %if.else.i

if.then.i:                                        ; preds = %if.end4
  %add.i = add nsw i32 %spec.store.select, 25
  br label %_ZN6icu_7510UnicodeSet12nextCapacityEi.exit

if.else.i:                                        ; preds = %if.end4
  %cmp1.i = icmp ult i32 %newLen, 2501
  br i1 %cmp1.i, label %if.then2.i, label %if.else3.i

if.then2.i:                                       ; preds = %if.else.i
  %mul.i = mul nuw nsw i32 %spec.store.select, 5
  br label %_ZN6icu_7510UnicodeSet12nextCapacityEi.exit

if.else3.i:                                       ; preds = %if.else.i
  %mul4.i = shl nuw nsw i32 %spec.store.select, 1
  %spec.store.select.i = tail call i32 @llvm.umin.i32(i32 %mul4.i, i32 1114113)
  br label %_ZN6icu_7510UnicodeSet12nextCapacityEi.exit

_ZN6icu_7510UnicodeSet12nextCapacityEi.exit:      ; preds = %if.then.i, %if.then2.i, %if.else3.i
  %retval.0.i = phi i32 [ %add.i, %if.then.i ], [ %mul.i, %if.then2.i ], [ %spec.store.select.i, %if.else3.i ]
  %conv = sext i32 %retval.0.i to i64
  %mul = shl nsw i64 %conv, 2
  %call5 = tail call noalias ptr @uprv_malloc_75(i64 noundef %mul) #23
  %cmp6 = icmp eq ptr %call5, null
  br i1 %cmp6, label %if.then7, label %do.body

if.then7:                                         ; preds = %_ZN6icu_7510UnicodeSet12nextCapacityEi.exit
  %bmpSet.i.i.i = getelementptr inbounds i8, ptr %this, i64 40
  %1 = load ptr, ptr %bmpSet.i.i.i, align 8
  %cmp.not.i.i.i = icmp eq ptr %1, null
  %stringSpan.i.i.i = getelementptr inbounds i8, ptr %this, i64 88
  %2 = load ptr, ptr %stringSpan.i.i.i, align 8
  %cmp2.i.i.i = icmp eq ptr %2, null
  %narrow.i.not.i.i = select i1 %cmp.not.i.i.i, i1 %cmp2.i.i.i, i1 false
  br i1 %narrow.i.not.i.i, label %if.end.i.i, label %_ZN6icu_7510UnicodeSet10setToBogusEv.exit

if.end.i.i:                                       ; preds = %if.then7
  %list.i.i = getelementptr inbounds i8, ptr %this, i64 16
  %3 = load ptr, ptr %list.i.i, align 8
  store i32 1114112, ptr %3, align 4
  %len.i.i = getelementptr inbounds i8, ptr %this, i64 28
  store i32 1, ptr %len.i.i, align 4
  %pat.i.i.i = getelementptr inbounds i8, ptr %this, i64 64
  %4 = load ptr, ptr %pat.i.i.i, align 8
  %tobool.not.i.i.i = icmp eq ptr %4, null
  br i1 %tobool.not.i.i.i, label %_ZN6icu_7510UnicodeSet14releasePatternEv.exit.i.i, label %if.then.i.i.i

if.then.i.i.i:                                    ; preds = %if.end.i.i
  tail call void @uprv_free_75(ptr noundef nonnull %4)
  store ptr null, ptr %pat.i.i.i, align 8
  %patLen.i.i.i = getelementptr inbounds i8, ptr %this, i64 72
  store i32 0, ptr %patLen.i.i.i, align 8
  br label %_ZN6icu_7510UnicodeSet14releasePatternEv.exit.i.i

_ZN6icu_7510UnicodeSet14releasePatternEv.exit.i.i: ; preds = %if.then.i.i.i, %if.end.i.i
  %strings.i.i = getelementptr inbounds i8, ptr %this, i64 80
  %5 = load ptr, ptr %strings.i.i, align 8
  %cmp.not.i.i = icmp eq ptr %5, null
  br i1 %cmp.not.i.i, label %_ZN6icu_7510UnicodeSet10setToBogusEv.exit, label %if.then2.i.i

if.then2.i.i:                                     ; preds = %_ZN6icu_7510UnicodeSet14releasePatternEv.exit.i.i
  tail call void @_ZN6icu_757UVector17removeAllElementsEv(ptr noundef nonnull align 8 dereferenceable(40) %5)
  br label %_ZN6icu_7510UnicodeSet10setToBogusEv.exit

_ZN6icu_7510UnicodeSet10setToBogusEv.exit:        ; preds = %if.then7, %_ZN6icu_7510UnicodeSet14releasePatternEv.exit.i.i, %if.then2.i.i
  %fFlags.i = getelementptr inbounds i8, ptr %this, i64 32
  store i8 1, ptr %fFlags.i, align 8
  br label %return

do.body:                                          ; preds = %_ZN6icu_7510UnicodeSet12nextCapacityEi.exit
  %list = getelementptr inbounds i8, ptr %this, i64 16
  %6 = load ptr, ptr %list, align 8
  %len = getelementptr inbounds i8, ptr %this, i64 28
  %7 = load i32, ptr %len, align 4
  %conv9 = sext i32 %7 to i64
  %mul10 = shl nsw i64 %conv9, 2
  tail call void @llvm.memcpy.p0.p0.i64(ptr nonnull align 4 %call5, ptr align 4 %6, i64 %mul10, i1 false)
  %stackList = getelementptr inbounds i8, ptr %this, i64 96
  %cmp12.not = icmp eq ptr %6, %stackList
  br i1 %cmp12.not, label %if.end15, label %if.then13

if.then13:                                        ; preds = %do.body
  tail call void @uprv_free_75(ptr noundef %6)
  br label %if.end15

if.end15:                                         ; preds = %if.then13, %do.body
  store ptr %call5, ptr %list, align 8
  store i32 %retval.0.i, ptr %capacity, align 8
  br label %return

return:                                           ; preds = %entry, %if.end15, %_ZN6icu_7510UnicodeSet10setToBogusEv.exit
  %retval.0 = phi i1 [ false, %_ZN6icu_7510UnicodeSet10setToBogusEv.exit ], [ true, %if.end15 ], [ true, %entry ]
  ret i1 %retval.0
}